target datalayout = "e-m:e-p270:32:32-p271:32:32-p272:64:64-i64:64-i128:128-f80:128-n8:16:32:64-S128"
target triple = "x86_64-pc-linux-gnu"

%class.params_ref = type { ptr }
%"class.sls::seq_plugin" = type { %"class.sls::plugin.base", %class.seq_util, %class.arith_util, %class.seq_rewriter, %class.th_rewriter, %class.scoped_ptr_vector, %class.indexed_uint_set, i8, i32, %class.vector.6, %class.vector.7, %class.svector.8 }
%"class.sls::plugin.base" = type <{ ptr, ptr, ptr, i32 }>
%class.seq_util = type { ptr, ptr, ptr, i32, [4 x i8], %"class.seq_util::str", %"class.seq_util::rex" }
%"class.seq_util::str" = type <{ ptr, ptr, i32, [4 x i8] }>
%"class.seq_util::rex" = type { ptr, ptr, i32, %class.vector, %class.ref_vector, %"struct.seq_util::rex::info", %"struct.seq_util::rex::info" }
%class.vector = type { ptr }
%class.ref_vector = type { %class.ref_vector_core }
%class.ref_vector_core = type { %class.ref_manager_wrapper, %class.ptr_vector }
%class.ref_manager_wrapper = type { ptr }
%class.ptr_vector = type { %class.vector.0 }
%class.vector.0 = type { ptr }
%"struct.seq_util::rex::info" = type { i32, i8, i32, i32 }
%class.arith_util = type { ptr, ptr }
%class.seq_rewriter = type <{ %class.seq_util, %class.arith_util, %class.bool_rewriter, %class.re2automaton, %"class.seq_rewriter::op_cache", %class.ref_vector, %class.ref_vector, %class.ref_vector, i8, [7 x i8] }>
%class.bool_rewriter = type { ptr, i8, i8, i8, i8, i8, i8, i32, i8, i32, i32, i8, %class.ptr_vector, %class.ptr_vector, %class.svector, %class.svector }
%class.svector = type { %class.vector.1 }
%class.vector.1 = type { ptr }
%class.re2automaton = type { ptr, [8 x i8], %class.seq_util, %class.scoped_ptr, %class.scoped_ptr.2, %class.scoped_ptr.3 }
%class.scoped_ptr = type { ptr }
%class.scoped_ptr.2 = type { ptr }
%class.scoped_ptr.3 = type { ptr }
%"class.seq_rewriter::op_cache" = type { i32, %class.ref_vector, %class.hashtable }
%class.hashtable = type { %class.core_hashtable.base, [4 x i8] }
%class.core_hashtable.base = type <{ ptr, i32, i32, i32 }>
%class.th_rewriter = type { ptr, %class.params_ref }
%class.scoped_ptr_vector = type { %class.ptr_vector.4 }
%class.ptr_vector.4 = type { %class.vector.5 }
%class.vector.5 = type { ptr }
%class.indexed_uint_set = type { i32, %class.svector, %class.svector }
%class.vector.6 = type { ptr }
%class.vector.7 = type { ptr }
%class.svector.8 = type { %class.vector.9 }
%class.vector.9 = type { ptr }
%class.obj_ref = type { ptr, ptr }
%"struct.sls::seq_plugin::eval" = type { %"struct.sls::seq_plugin::value", %"struct.sls::seq_plugin::value", i8, i32, i32, %class.ptr_vector, %class.ptr_vector }
%"struct.sls::seq_plugin::value" = type { %class.zstring, %class.obj_ref }
%class.zstring = type { %class.buffer }
%class.buffer = type { ptr, i32, i32, [64 x i8] }

; Function Attrs: mustprogress nounwind uwtable
define linkonce_odr hidden noundef zeroext i1 @_ZNK6vectorIP4exprLb0EjE5emptyEv(ptr noundef nonnull align 8 dereferenceable(8) %0) #5 comdat align 2 {
  %2 = alloca ptr, align 8
  store ptr %0, ptr %2, align 8, !tbaa !143
  %3 = load ptr, ptr %2, align 8
  %4 = getelementptr inbounds nuw %class.vector.0, ptr %3, i32 0, i32 0
  %5 = load ptr, ptr %4, align 8, !tbaa !145
  %6 = icmp eq ptr %5, null
  br i1 %6, label %13, label %7

7:                                                ; preds = %1
  %8 = getelementptr inbounds nuw %class.vector.0, ptr %3, i32 0, i32 0
  %9 = load ptr, ptr %8, align 8, !tbaa !145
  %10 = getelementptr inbounds i32, ptr %9, i64 -1
  %11 = load i32, ptr %10, align 4, !tbaa !130
  %12 = icmp eq i32 %11, 0
  br label %13

13:                                               ; preds = %7, %1
  %14 = phi i1 [ true, %1 ], [ %12, %7 ]
  ret i1 %14
}

; Function Attrs: mustprogress uwtable
define hidden noundef nonnull align 8 dereferenceable(8) ptr @_ZN3sls10seq_plugin7concatsEP4expr(ptr noundef nonnull align 8 dereferenceable(768) %0, ptr noundef %1) #4 align 2 {
  %3 = alloca ptr, align 8
  %4 = alloca ptr, align 8
  %5 = alloca ptr, align 8
  store ptr %0, ptr %3, align 8, !tbaa !3
  store ptr %1, ptr %4, align 8, !tbaa !128
  %6 = load ptr, ptr %3, align 8
  call void @llvm.lifetime.start.p0(i64 8, ptr %5) #3
  %7 = load ptr, ptr %4, align 8, !tbaa !128
  %8 = call noundef nonnull align 8 dereferenceable(224) ptr @_ZN3sls10seq_plugin8get_evalEP4expr(ptr noundef nonnull align 8 dereferenceable(768) %6, ptr noundef %7)
  store ptr %8, ptr %5, align 8, !tbaa !177
  %9 = load ptr, ptr %5, align 8, !tbaa !177
  %10 = getelementptr inbounds nuw %"struct.sls::seq_plugin::eval", ptr %9, i32 0, i32 5
  %11 = call noundef zeroext i1 @_ZNK6vectorIP4exprLb0EjE5emptyEv(ptr noundef nonnull align 8 dereferenceable(8) %10)
  br i1 %11, label %12, label %18

12:                                               ; preds = %2
  %13 = getelementptr inbounds nuw %"class.sls::seq_plugin", ptr %6, i32 0, i32 1
  %14 = getelementptr inbounds nuw %class.seq_util, ptr %13, i32 0, i32 5
  %15 = load ptr, ptr %4, align 8, !tbaa !128
  %16 = load ptr, ptr %5, align 8, !tbaa !177
  %17 = getelementptr inbounds nuw %"struct.sls::seq_plugin::eval", ptr %16, i32 0, i32 5
  call void @_ZNK8seq_util3str10get_concatEP4exprR10ptr_vectorIS1_E(ptr noundef nonnull align 8 dereferenceable(20) %14, ptr noundef %15, ptr noundef nonnull align 8 dereferenceable(8) %17)
  br label %18

18:                                               ; preds = %12, %2
  %19 = load ptr, ptr %5, align 8, !tbaa !177
  %20 = getelementptr inbounds nuw %"struct.sls::seq_plugin::eval", ptr %19, i32 0, i32 5
  call void @llvm.lifetime.end.p0(i64 8, ptr %5) #3
  ret ptr %20
}