; Function Attrs: mustprogress uwtable
define hidden noundef nonnull align 8 dereferenceable(8) ptr @_ZN3sls10seq_plugin7concatsEP4expr(ptr noundef nonnull align 8 dereferenceable(768) %0, ptr noundef %1) local_unnamed_addr #3 align 2 {
  %3 = tail call noundef nonnull align 8 dereferenceable(224) ptr @_ZN3sls10seq_plugin8get_evalEP4expr(ptr noundef nonnull align 8 dereferenceable(768) %0, ptr noundef %1)
  %4 = getelementptr inbounds nuw i8, ptr %3, i64 208
  %5 = load ptr, ptr %4, align 8, !tbaa !78
  %6 = icmp eq ptr %5, null
  br i1 %6, label %_ZNK6vectorIP4exprLb0EjE5emptyEv.exit.thread, label %_ZNK6vectorIP4exprLb0EjE5emptyEv.exit

_ZNK6vectorIP4exprLb0EjE5emptyEv.exit:            ; preds = %2
  %7 = getelementptr inbounds i8, ptr %5, i64 -4
  %8 = load i32, ptr %7, align 4, !tbaa !130
  %9 = icmp eq i32 %8, 0
  br i1 %9, label %_ZNK6vectorIP4exprLb0EjE5emptyEv.exit.thread, label %11

_ZNK6vectorIP4exprLb0EjE5emptyEv.exit.thread:     ; preds = %2, %_ZNK6vectorIP4exprLb0EjE5emptyEv.exit
  %10 = getelementptr inbounds nuw i8, ptr %0, i64 64
  tail call void @_ZNK8seq_util3str10get_concatEP4exprR10ptr_vectorIS1_E(ptr noundef nonnull align 8 dereferenceable(20) %10, ptr noundef %1, ptr noundef nonnull align 8 dereferenceable(8) %4)
  br label %11

11:                                               ; preds = %_ZNK6vectorIP4exprLb0EjE5emptyEv.exit.thread, %_ZNK6vectorIP4exprLb0EjE5emptyEv.exit
  ret ptr %4
}